__ZN3c1020ThreadLocalDebugInfo7currentEv
__ZN3c1017isIncludedInAliasENS_11DispatchKeyES0_
__ZTINSt3__16locale5facetE
__tlv_atexit
__ZNSt3__115basic_streambufIcNS_11char_traitsIcEEED2Ev
__ZN6google8protobuf5Arena18CreateMaybeMessageIN10onnx_torch18TypeProto_SequenceEJEEEPT_PS1_DpOT0_
__ZNK3c106SymIntmlERKS0_
__ZNSt3__19to_stringEl
__ZSt17rethrow_exceptionSt13exception_ptr
__ZNK3c106SymInt6sym_gtERKS0_
_modf
__ZNK3c1011StorageImpl27throw_data_ptr_access_errorEv
__ZN6google8protobuf5Arena18CreateMaybeMessageIN10onnx_torch26TensorShapeProto_DimensionEJEEEPT_PS1_DpOT0_
__ZN6google8protobuf2io16CodedInputStream24default_recursion_limit_E
_flockfile
__ZN3c10miERKNS_6SymIntEx
_munmap
_calloc
__ZTVNSt3__18ios_baseE
__ZN3c1013InferenceMode10is_enabledEv
__ZNK3c1010TensorImpl21storage_offset_customEv
__ZNK3c1010TensorImpl14strides_customEv
__ZN3c104impl12PyObjectSlot17pyobj_interpreterEv
__ZN3c108toStringENS_11DispatchKeyE
___stack_chk_guard
__ZTISt9bad_alloc
__ZN3c105utils9check_envEPKc
__ZNSt3__113basic_ostreamIcNS_11char_traitsIcEEElsEl
__ZNSt3__112basic_stringIcNS_11char_traitsIcEENS_9allocatorIcEEE6appendEmc
__ZNSt3__16localeaSERKS0_
__ZN3c10lsERNSt3__113basic_ostreamIcNS0_11char_traitsIcEEEENS_10DeviceTypeE
_sgemm_
_OBJC_CLASS_$_NSNumber
__ZNSt3__16localeC1ERKS0_
_PyModule_Create2
_fmodf
_PyIndex_Check
__ZNSt3__112basic_stringIcNS_11char_traitsIcEENS_9allocatorIcEEE6assignEmc
_memset
_fprintf
__ZNK3c1010TensorImpl22is_strides_like_customENS_12MemoryFormatE
__ZN3c105ErrorC2ENSt3__112basic_stringIcNS1_11char_traitsIcEENS1_9allocatorIcEEEENS1_10shared_ptrIKNS_9LazyValueIS7_EEEEPKv
_PyThread_tss_set
__ZTISt9exception
__ZNSt3__112basic_stringIcNS_11char_traitsIcEENS_9allocatorIcEEE6__initEmc
_pthread_atfork
_OBJC_CLASS_$_NSString
_tanhf
_fread
__ZN3c106detail25getNonDeterministicRandomEb
__ZN3c106SymInt19promote_to_negativeEv
_asin
__ZNSt3__116generic_categoryEv
_pytorch_qnnp_delete_operator
_cpuinfo_initialize
_objc_msgSend$GPUStartTime
__ZTVNSt3__119__shared_weak_countE
_PyInstanceMethod_Type
__ZNSt3__112basic_stringIcNS_11char_traitsIcEENS_9allocatorIcEEE5eraseEmm
___cxa_guard_acquire
__ZTTNSt3__118basic_stringstreamIcNS_11char_traitsIcEENS_9allocatorIcEEEE
_PyErr_WriteUnraisable
__ZNK3c106SymInt8has_hintEv
__ZTVN3c105ErrorE
_acos
__ZNSt3__119__shared_weak_count4lockEv
__ZN3c106SymIntpLERKS0_
___cxa_atexit
__ZNSt3__114basic_iostreamIcNS_11char_traitsIcEEED2Ev
__ZNSt3__18ios_base33__set_badbit_and_consider_rethrowEv
_PyException_SetContext
_ddot_
__ZNSt3__113basic_istreamIcNS_11char_traitsIcEEED0Ev
_strdup
__ZN3c106SymIntC1ENS_13intrusive_ptrINS_11SymNodeImplENS_6detail34intrusive_target_default_null_typeIS2_EEEE
__ZN3c1010TensorImpl20copy_tensor_metadataEPKS0_PS0_RKNS_15VariableVersionEb
_log2f
__ZTVN10__cxxabiv120__function_type_infoE
__ZN3c10plERKNS_6SymIntEi
_modff
_PyByteArray_Type
_fflush
__ZN3c1015SmallVectorBaseIjE8grow_podEPKvmm
_cpuinfo_get_processors_count
__ZNSt3__118condition_variable15__do_timed_waitERNS_11unique_lockINS_5mutexEEENS_6chrono10time_pointINS5_12system_clockENS5_8durationIxNS_5ratioILl1ELl1000000000EEEEEEE
__ZThn16_NSt3__114basic_iostreamIcNS_11char_traitsIcEEED1Ev
__ZNK3c107SymBool7sym_andERKS0_
__ZNSt3__113basic_ostreamIcNS_11char_traitsIcEEElsEt
__ZNSt3__115basic_streambufIcNS_11char_traitsIcEEEC2Ev
_OBJC_CLASS_$_MPSGraphTensorData
__ZN3c10ltExRKNS_6SymIntE
_xnn_setup_convolution2d_nhwc_qs8_qc8w
__ZN3c108free_cpuEPv
__ZNSt3__112basic_stringIcNS_11char_traitsIcEENS_9allocatorIcEEE7replaceEmmmc
_scopy_
__ZNK3c1010TensorImpl25sym_storage_offset_customEv
__ZNSt3__118condition_variable10notify_allEv
__ZN3c1018ThreadPoolRegistryEv
__ZNSt12out_of_rangeD1Ev
__ZTINSt3__119__shared_weak_countE
__ZN3c104impl22SetAutogradMetaFactoryEPNS0_19AutogradMetaFactoryE
_OBJC_CLASS_$_NSDictionary
__ZN3c1018ThrowEnforceNotMetEPKciS1_S1_PKv
__ZN3c1028GetDefaultMobileCPUAllocatorEv
__ZTIN3c1010ThreadPoolE
__ZTVN10__cxxabiv121__vmi_class_type_infoE
_OBJC_CLASS_$_MPSGraphExecutionDescriptor
__ZN6google8protobuf13RepeatedFieldIxE7ReserveEi
__ZN3c104impl21dispatch_mode_enabledEv
_cos
_PyObject_CallFunctionObjArgs
__DefaultRuneLocale
__ZN3c1021AutogradMetaInterfaceD2Ev
__ZNSt3__113basic_filebufIcNS_11char_traitsIcEEEC1Ev
_objc_msgSend$contents
__ZN6google8protobuf2io16CodedInputStreamD1Ev
__ZNSt3__17collateIcE2idE
__ZNSt3__16thread6detachEv
_xnn_create_convolution2d_nhwc_qs8_qc8w
___gxx_personality_v0
_rewind
___stack_chk_fail
__ZNK3c1010TensorImpl13autograd_metaEv
_PyType_Type
_xnn_reshape_fully_connected_nc_qs8
__ZN6google8protobuf11MessageLite20ParseFromCodedStreamEPNS0_2io16CodedInputStreamE
_clock_gettime_nsec_np
__ZNSt3__113basic_istreamIcNS_11char_traitsIcEEE4readEPcl
_strlen
_nextafter
__ZN3c1013MessageLoggerC1EPKcii
__ZNSt3__111regex_errorC1ENS_15regex_constants10error_typeE
_funlockfile
__ZNSt3__113basic_ostreamIcNS_11char_traitsIcEEED0Ev
_free
_PyCMethod_New
__ZN3c1013MessageLoggerD1Ev
__ZNSt3__18ios_baseD2Ev
__ZSt9terminatev
__ZN3c1010TensorImpl17set_requires_gradEb
__ZNK3c1010TensorImpl35compute_channels_last_contiguous_2dENS0_8identityIbEE
_OBJC_CLASS_$_MPSNDArray
__ZNK3c106SymIntcvNS_8SymFloatEEv
_acosf
_PyCapsule_New
__ZN10onnx_torch10GraphProtoD1Ev
___dso_handle
__ZN3c109alloc_cpuEm
_PyObject_Str
__ZN3c1023get_privateuse1_backendEb
_objc_msgSend$UTF8String
__ZNSt3__112basic_stringIcNS_11char_traitsIcEENS_9allocatorIcEEE6resizeEmc
_saxpy_
__ZN3c10lsERNSt3__113basic_ostreamIcNS0_11char_traitsIcEEEERKNS_7uint128E
_sinf
__ZN6google8protobuf5Arena18CreateMaybeMessageIN10onnx_torch9NodeProtoEJEEEPT_PS1_DpOT0_
__ZN7qnnpack13qnnpackDeConvEP21pytorch_qnnp_operatorPvmmmhPKhS4_PKfhhhPhP11pthreadpool
__ZTVNSt3__114basic_ifstreamIcNS_11char_traitsIcEEEE
__ZN3c10miERKNS_6SymIntEm
_MTLCreateSystemDefaultDevice
__ZTISt12out_of_range
__PyType_Lookup
__ZNSt3__112system_errorD1Ev
__ZN3c1038initializeFunctionalityOffsetsAndMasksEv
___stderrp
__ZN3c1020ThreadLocalDebugInfo22_forceCurrentDebugInfoENSt3__110shared_ptrIS0_EE
__ZNK3c1010TensorImpl12sizes_customEv
_memcmp
__ZN3c104impl3cow23materialize_cow_storageERNS_11StorageImplE
__ZNK3c106Scalar4conjEv
__ZNSt3__115__thread_structD1Ev
__ZNSt3__16locale5facet16__on_zero_sharedEv
_PyThread_tss_get
_mach_task_self_
_bzero
_xnn_create_fully_connected_nc_qs8
__ZN3c104impl19HermeticPyObjectTLS10init_stateEv
_atan2f
__ZNSt3__18numpunctIcE2idE
_PyExc_MemoryError
_PyExc_RuntimeError
__ZN3c1031get_default_dtype_as_scalartypeEv
_PyTuple_Size
_PyThreadState_New
__ZN3c10lsERNSt3__113basic_ostreamIcNS0_11char_traitsIcEEEERKNS_6DeviceE
__ZN3c1014DeviceTypeNameENS_10DeviceTypeEb
__ZN3c105ErrorC2ENS_14SourceLocationENSt3__112basic_stringIcNS2_11char_traitsIcEENS2_9allocatorIcEEEE
_cgemm_
__ZTINSt3__112system_errorE
___cxa_bad_cast
__ZN3c10miEiRKNS_6SymIntE
___cxa_demangle
__ZNKSt13runtime_error4whatEv
__ZTIN3c1010TensorImplE
__ZNSt3__112basic_stringIcNS_11char_traitsIcEENS_9allocatorIcEEE7reserveEm
__ZTv0_n24_NSt3__114basic_iostreamIcNS_11char_traitsIcEEED0Ev
_PyEval_AcquireThread
__ZNSt11logic_errorD1Ev
__ZNSt3__112basic_stringIcNS_11char_traitsIcEENS_9allocatorIcEEEaSERKS5_
__ZNK6google8protobuf7Message11DebugStringEv
__ZdlPv
_tan
___swbuf
__ZNSt3__118condition_variableD1Ev
__ZN3c104impl20TorchDispatchModeTLS9get_stateEv
__ZNK7qnnpack11PackBMatrix13unpackWeightsEPKhPa
_PyCapsule_Type
__ZNSt3__114basic_iostreamIcNS_11char_traitsIcEEED0Ev
__ZN3c1033is_privateuse1_backend_registeredEv
__ZN3c108demangleEPKc
_NSClassFromString
__ZNK3c109Allocator18is_simple_data_ptrERKNS_7DataPtrE
__ZNK3c106SymInt3maxERKS0_
__ZN3c106detail14torchCheckFailEPKcS2_jRKNSt3__112basic_stringIcNS3_11char_traitsIcEENS3_9allocatorIcEEEE
__ZN3c1028getBackendKeySetFromAutogradENS_11DispatchKeyE
_Sleef_expf4_u10
___cxa_begin_catch
_cpuinfo_isa
__ZN6google8protobuf5Arena18CreateMaybeMessageIN10onnx_torch18OperatorSetIdProtoEJEEEPT_PS1_DpOT0_
__ZNK6google8protobuf11MessageLite17SerializeAsStringEv
_pthread_setspecific
_daxpy_
__ZNSt3__113basic_ostreamIcNS_11char_traitsIcEEElsEm
_lgammaf
__ZTISt11logic_error
__ZN3c10ltERKNS_6SymIntEi
_PyErr_SetString
__ZNK3c106Scalar3logEv
_PyCapsule_SetPointer
__ZTv0_n24_NSt3__113basic_istreamIcNS_11char_traitsIcEEED1Ev
__ZNSt13runtime_errorC2EPKc
__ZTTNSt3__114basic_ifstreamIcNS_11char_traitsIcEEEE
_PyProperty_Type
__ZN3c1017isValidDeviceTypeENS_10DeviceTypeE
__ZNSt3__19basic_iosIcNS_11char_traitsIcEEED2Ev
_xnn_create_convolution2d_nhwc_qs8
_xnn_reshape_convolution2d_nhwc_qs8_qc8w
__ZN10onnx_torch29_GraphProto_default_instance_E
__ZNK3c1010TensorImpl31throw_cannot_call_with_symbolicEPKc
_expf
__ZN3c1017make_storage_implENS_11StorageImpl15use_byte_size_tENS_6SymIntENS_7DataPtrEPNS_9AllocatorEbNSt3__18optionalINS_6DeviceEEE
__ZN3c1010TensorImplC1ENS0_8ImplTypeEONS_7StorageENS_14DispatchKeySetEN6caffe28TypeMetaE
_PyBaseObject_Type
_dcopy_
__ZNK3c1010TensorImpl4gradEv
_dgemm_
__ZNSt3__16stoullERKNS_12basic_stringIcNS_11char_traitsIcEENS_9allocatorIcEEEEPmi
__ZN3c1013AutogradState13get_tls_stateEv
_objc_autoreleasePoolPush
__ZNSt3__113basic_ostreamIcNS_11char_traitsIcEEElsEj
__ZN3c104impl33_force_tls_local_dispatch_key_setENS0_19LocalDispatchKeySetE
__ZN3c10mlERKNS_6SymIntEm
__ZTISt19bad_optional_access
__ZTVNSt3__112bad_weak_ptrE
__ZNK3c1010TensorImpl35compute_channels_last_contiguous_3dENS0_8identityIbEE
__ZNSt3__112bad_weak_ptrD1Ev
__ZNSt3__112basic_stringIcNS_11char_traitsIcEENS_9allocatorIcEEED1Ev
__ZN3c1010TensorImpl17set_autograd_metaENSt3__110unique_ptrINS_21AutogradMetaInterfaceENS1_14default_deleteIS3_EEEE
__ZN3c104impl23ExcludeDispatchKeyGuardD1Ev
__ZN3c1010TensorImplC2EONS_7StorageENS_14DispatchKeySetEN6caffe28TypeMetaE
__ZN10onnx_torch26TensorShapeProto_Dimension11clear_valueEv
__ZN10onnx_torch7checker11check_modelERKNS_10ModelProtoEbbb
_sscal_
_PyFrame_GetLineNumber
__ZNSt3__113basic_ostreamIcNS_11char_traitsIcEEElsEd
_PyDict_Next
__ZNK3c106ScalarngEv
__ZNSt3__113basic_istreamIcNS_11char_traitsIcEEED2Ev
__NSConcreteGlobalBlock
__ZdlPvSt11align_val_t
__ZN3c10lsERNSt3__113basic_ostreamIcNS0_11char_traitsIcEEEERKNS_8SymFloatE
_PyObject_Repr
_zcopy_
__ZTINSt3__111regex_errorE
__ZNSt3__15mutexD1Ev
_erfcf
__ZTINSt3__112bad_weak_ptrE
_PyExc_SystemError
__ZNSt3__112basic_stringIcNS_11char_traitsIcEENS_9allocatorIcEEE6appendEPKc
__ZNK3c106Device3strEv
__ZNSt3__18ios_base5imbueERKNS_6localeE
_PyEval_SaveThread
_abort
_PyErr_Format
__ZNK3c108SymFloatdvERKS0_
__ZNK3c1010TensorImpl37compute_strides_like_channels_last_3dENS0_8identityIbEE
_PyFloat_Type
__ZNSt3__14cerrE
__ZNK3c1010TensorImpl27throw_data_ptr_access_errorEv
__ZNK3c1010TensorImpl11has_storageEv
_IOSurfaceGetBaseAddress
_PyThread_tss_alloc
__ZN3c10gtERKNS_6SymIntEi
_OBJC_CLASS_$_NSURL
__ZNK3c107SymBool20guard_size_obliviousEPKcx
__ZN6caffe28TypeMeta26error_unsupported_typemetaES0_
__ZN3c104impl26device_guard_impl_registryE
__ZNSt3__120__throw_system_errorEiPKc
__ZNSt3__16__sortIRNS_6__lessImmEEPmEEvT0_S5_T_
_ldexpf
__ZTWN3c104impl26raw_local_dispatch_key_setE
_ftello
_OBJC_CLASS_$_MPSCommandBuffer
_PyUnicode_AsUTF8AndSize
_expm1
__ZNK3c1010ThreadPool12inThreadPoolEv
_PyMem_Calloc
_close
__ZNSt3__112basic_stringIcNS_11char_traitsIcEENS_9allocatorIcEEEC1ERKS5_
__ZNSt3__112system_errorC1ENS_10error_codeERKNS_12basic_stringIcNS_11char_traitsIcEENS_9allocatorIcEEEE
__ZNKSt3__16locale9use_facetERNS0_2idE
__ZTVSt12out_of_range
__ZNSt3__112basic_stringIcNS_11char_traitsIcEENS_9allocatorIcEEE6appendEPKcm
__ZTISt18bad_variant_access
__ZNSt13runtime_errorD1Ev
___cxa_end_catch
_xnn_initialize
__ZN3c1013setThreadNameENSt3__112basic_stringIcNS0_11char_traitsIcEENS0_9allocatorIcEEEE
__ZNK10onnx_torch10GraphProto12ByteSizeLongEv
__ZNK3c1017SymbolicShapeMeta35init_is_channels_last_3d_contiguousEv
_pytorch_qnnp_params
__ZN3c108toStringENS_16BackendComponentE
_zgemm_
_IOSurfaceLookupFromMachPort
_PyModule_AddObject
__ZN3c106detail13StripBasenameERKNSt3__112basic_stringIcNS1_11char_traitsIcEENS1_9allocatorIcEEEE
__ZN3c1010TensorImpl21set_sizes_and_stridesENS_8ArrayRefINS_6SymIntEEES3_NSt3__18optionalIS2_EE
__ZN3c104impl20TorchDispatchModeTLS12get_stack_atEx
_dgemv_
__ZNSt3__119__thread_local_dataEv
__ZNK3c1013GeneratorImpl19graphsafe_get_stateEv
__ZN3c105ErrorC1ENSt3__112basic_stringIcNS1_11char_traitsIcEENS1_9allocatorIcEEEENS1_10shared_ptrIKNS_9LazyValueIS7_EEEEPKv
__ZNK3c109Allocator17default_copy_dataEPvPKvm
__dispatch_main_q
_PyThreadState_DeleteCurrent
_zaxpy_
__ZNK6google8protobuf5Arena17OnArenaAllocationEPKSt9type_infom
__ZN3c1029InefficientStdFunctionContext11makeDataPtrEPvNSt3__18functionIFvS1_EEENS_6DeviceE
__ZNSt3__115__get_classnameEPKcb
_mmap
__ZNSt3__113basic_ostreamIcNS_11char_traitsIcEEElsEb
_OBJC_CLASS_$_MTLCompileOptions
__ZNSt3__115recursive_mutexC1Ev
_pthreadpool_destroy
_PyDict_Copy
__ZNK3c1010TensorImpl23shallow_copy_and_detachERKNS_15VariableVersionEb
_objc_enumerationMutation
__ZNSt3__113basic_ostreamIcNS_11char_traitsIcEEED1Ev
__Block_object_dispose
_log10f
__ZNSt3__115recursive_mutex6unlockEv
__ZNSt3__118condition_variable10notify_oneEv
__ZNSt3__18ios_base5clearEj
__ZNK3c1010ThreadPool4sizeEv
__ZTINSt3__113basic_ostreamIcNS_11char_traitsIcEEEE
_strtoull
__ZSt13set_terminatePFvvE
_OBJC_CLASS_$_MPSNDArrayDescriptor
__Znam
__ZNSt3__112basic_stringIcNS_11char_traitsIcEENS_9allocatorIcEEE9__grow_byEmmmmmm
__ZNKSt3__16locale9has_facetERNS0_2idE
___dynamic_cast
_OBJC_CLASS_$_NSProcessInfo
__ZN6google8protobuf5Arena18CreateMaybeMessageIN10onnx_torch18TypeProto_OptionalEJEEEPT_PS1_DpOT0_
__ZN3c104impl12PyObjectSlotD1Ev
__ZNSt3__113basic_istreamIcNS_11char_traitsIcEEE5tellgEv
__ZNK3c1010TensorImpl16sym_numel_customEv
_erfc
___chkstk_darwin
_log2
__ZNSt3__16thread4joinEv
_PyBytes_AsStringAndSize
__ZN3c1010TensorImpl28empty_tensor_restride_symintENS_12MemoryFormatE
_PyByteArray_Size
__ZN3c1015report_overflowEPKc
_tanh
_PyUnicode_AsUTF8String
__ZN3c1019LogAPIUsageMetadataERKNSt3__112basic_stringIcNS0_11char_traitsIcEENS0_9allocatorIcEEEERKNS0_3mapIS6_S6_NS0_4lessIS6_EENS4_INS0_4pairIS7_S6_EEEEEE
__ZN6google8protobuf5Arena18CreateMaybeMessageIN10onnx_torch14AttributeProtoEJEEEPT_PS1_DpOT0_
__ZN7qnnpack18PrePackConvWeightsC1EP21pytorch_qnnp_operatorPKhS4_PKi
__ZNK3c108SymFloat6sym_leERKS0_
__ZNSt13exception_ptrC1ERKS_
__ZNSt3__113basic_ostreamIcNS_11char_traitsIcEEE5writeEPKcl
__ZN3c104impl19PythonDispatcherTLS9get_stateEv
__ZNSt3__19to_stringEm
_PyTuple_GetItem
_realloc
__ZN3c10geERKNS_6SymIntEi
__ZNK3c106SymIntdvERKS0_
_PyFrame_GetBack
__ZN3c1014DispatchKeySet8iteratorppEv
__ZTTNSt3__114basic_ofstreamIcNS_11char_traitsIcEEEE
_PyLong_AsUnsignedLong
__ZNK3c1010TensorImpl37compute_strides_like_channels_last_2dENS0_8identityIbEE
__ZTv0_n24_NSt3__113basic_istreamIcNS_11char_traitsIcEEED0Ev
__ZN3c1021warnDeprecatedDataPtrEv
_PyType_Ready
__ZN3c1013C10FlagParser5ParseIiEEbRKNSt3__112basic_stringIcNS2_11char_traitsIcEENS2_9allocatorIcEEEEPT_
__ZNSt3__16thread20hardware_concurrencyEv
_OBJC_CLASS_$_MTLSharedEventListener
_fclose
_dispatch_sync
__ZN6google8protobuf5Arena18CreateMaybeMessageIN10onnx_torch11TensorProtoEJEEEPT_PS1_DpOT0_
__ZN3c1013GeneratorImplC2ENS_6DeviceENS_14DispatchKeySetE
_ccopy_
__ZN6google8protobuf5Arena18CreateMaybeMessageIN10onnx_torch13FunctionProtoEJEEEPT_PS1_DpOT0_
_PyList_Size
__ZN3c1025get_default_complex_dtypeEv
__ZTISt16invalid_argument
_PyErr_Occurred
__ZN3c1010ThreadPoolC2EiiRKNSt3__18functionIFvvEEE
_Py_GetVersion
__ZN3c1010TensorImplC2ENS_14DispatchKeySetEN6caffe28TypeMetaENSt3__18optionalINS_6DeviceEEE
_PyType_IsSubtype
___CFConstantStringClassReference
_memset_pattern16
__ZNSt3__114basic_iostreamIcNS_11char_traitsIcEEED1Ev
__ZNSt11logic_errorC1ERKNSt3__112basic_stringIcNS0_11char_traitsIcEENS0_9allocatorIcEEEE
_PyExc_TypeError
__ZN3c108GradMode11set_enabledEb
_sinh
__ZdaPv
_PyGILState_GetThisThreadState
_PyThreadState_Get
__ZNSt3__113basic_ostreamIcNS_11char_traitsIcEEE6sentryC1ERS3_
_strtoll
__ZN3c1012GetAllocatorERKNS_10DeviceTypeE
__ZN3c1010TensorImpl28generic_set_sizes_contiguousENS_8ArrayRefINS_6SymIntEEE
_xnn_run_operator
__ZN3c1010ThreadPoolD2Ev
_PyMem_Free
__ZNK3c1017SymbolicShapeMeta32init_is_channels_last_contiguousEv
__ZNK3c108SymFloatmiERKS0_
_fseek
__ZNKSt3__112basic_stringIcNS_11char_traitsIcEENS_9allocatorIcEEE7compareEmmPKcm
__ZN3c10lsERNSt3__113basic_ostreamIcNS0_11char_traitsIcEEEENS_14DispatchKeySetE
__ZNSt3__112basic_stringIcNS_11char_traitsIcEENS_9allocatorIcEEE6__initEPKcm
__ZN7qnnpack20qnnpackLinearDynamicEmmmhPKhPKfS1_mPvS3_PfmP11pthreadpool
__Py_Dealloc
__ZN3c105utils7get_envEPKc
__ZNSt3__113basic_ostreamIcNS_11char_traitsIcEEElsEi
_objc_msgSend$device
__ZNSt3__16__sortIRNS_6__lessIddEEPdEEvT0_S5_T_
__ZN3c108GradMode10is_enabledEv
_PyLong_AsLong
_expm1f
_cblas_zdotu_sub
__ZNSt13exception_ptraSERKS_
__ZNSt3__18ios_base4initEPv
__ZN10onnx_torch10ModelProtoC1EPN6google8protobuf5ArenaE
_PyObject_IsInstance
__ZNK3c1017SymbolicShapeMeta33init_is_non_overlapping_and_denseEv
__ZNK3c1010TensorImpl18sym_strides_customEv
__ZN3c104impl20TorchDispatchModeTLS9set_stateES1_
__ZNSt3__16locale5facetD2Ev
__ZNSt3__113basic_ostreamIcNS_11char_traitsIcEEE3putEc
__Znwm
_memcpy
_PyUnicode_DecodeUTF8
__ZN3c10dvERKNS_6SymIntEx
__ZNK3c106SymInt6sym_leERKS0_
__ZN3c1020isSharedStorageAliasERKNS_7StorageES2_
_objc_msgSend$count
_OBJC_CLASS_$_MTLHeapDescriptor
__ZTIN3c1021AutogradMetaInterfaceE
__ZNSt3__112basic_stringIcNS_11char_traitsIcEENS_9allocatorIcEEE2atEm
__ZTTNSt3__119basic_ostringstreamIcNS_11char_traitsIcEENS_9allocatorIcEEEE
__ZTVN3c1013GeneratorImplE
_posix_memalign
___memset_chk
__ZN3c1024getRuntimeDispatchKeySetENS_11DispatchKeyE
__ZN3c1010TensorImpl12_set_fw_gradERKN2at10TensorBaseES4_yb
__ZTVNSt3__19basic_iosIcNS_11char_traitsIcEEEE
__ZNSt3__113basic_filebufIcNS_11char_traitsIcEEE4openEPKcj
__ZN10onnx_torch10GraphProtoC1ERKS0_
___cxa_free_exception
_PyObject_ClearWeakRefs
_objc_alloc_init
__ZN3c1020isBackendDispatchKeyENS_11DispatchKeyE
_MTLCopyAllDevices
_OBJC_CLASS_$_MTLCaptureDescriptor
__ZN10onnx_torch15shape_inference11InferShapesERNS_10ModelProtoEPKNS_15ISchemaRegistryERKNS_21ShapeInferenceOptionsEPNSt3__113unordered_mapINS9_12basic_stringIcNS9_11char_traitsIcEENS9_9allocatorIcEEEENS_16TensorShapeProtoENS9_4hashISG_EENS9_8equal_toISG_EENSE_INS9_4pairIKSG_SH_EEEEEE
___cxa_allocate_exception
_PyTuple_New
_erf
_OBJC_CLASS_$_NSConstantArray
__ZN6google8protobuf13RepeatedFieldIfE7ReserveEi
__ZN3c1012WarningUtils19set_warning_handlerEPNS_14WarningHandlerE
__ZN3c106DeviceC1ERKNSt3__112basic_stringIcNS1_11char_traitsIcEENS1_9allocatorIcEEEE
__ZNK3c106SymInt6sym_eqERKS0_
__os_signpost_emit_with_name_impl
_OBJC_CLASS_$_MPSGraphCompilationDescriptor
__ZTVN10__cxxabiv117__class_type_infoE
_PyBytes_AsString
__ZNSt3__115recursive_mutex4lockEv
__ZNSt11logic_errorC2EPKc
__ZNK10onnx_torch9NodeProto12ByteSizeLongEv
_PyDict_Size
_log
_PyUnicode_FromString
__ZNKSt9exception4whatEv
__ZNSt3__112basic_stringIcNS_11char_traitsIcEENS_9allocatorIcEEE6assignEPKc
_fseeko
___cxa_guard_release
__ZNSt3__15stollERKNS_12basic_stringIcNS_11char_traitsIcEENS_9allocatorIcEEEEPmi
__ZN6google8protobuf8internal20RepeatedPtrFieldBase7ReserveEi
__ZNK3c104impl12PyObjectSlot22load_pyobj_interpreterEv
__ZN10onnx_torch9TypeProto11clear_valueEv
__Z16THPVariable_WrapN2at10TensorBaseE
__ZTVSt9exception
__ZTISt12domain_error
_cblas_sdot
__Block_object_assign
__ZN3c106detail23torchInternalAssertFailEPKcS2_jS2_S2_
_OBJC_CLASS_$_NSConstantIntegerNumber
__ZN3c1025getAutogradKeyFromBackendENS_16BackendComponentE
_PyErr_WarnEx
__ZNK3c1010TensorImpl20is_contiguous_customENS_12MemoryFormatE
__ZTVNSt3__114__shared_countE
__ZNSt3__113basic_filebufIcNS_11char_traitsIcEEE5closeEv
__ZN3c1013get_backtraceEmmb
_PyObject_HasAttrString
__ZNK3c1010TensorImpl13device_customEv
__ZN6google8protobuf2io16CodedInputStream18SetTotalBytesLimitEi
__ZN3c106detail21LogAPIUsageFakeReturnERKNSt3__112basic_stringIcNS1_11char_traitsIcEENS1_9allocatorIcEEEE
_objc_autoreleasePoolPop
__ZN3c1010TensorImpl12mutable_gradEv
_xnn_reshape_convolution2d_nhwc_qs8
__ZNKSt3__115error_condition7messageEv
_freopen
__dyld_get_image_header
_mach_port_type
_PyDict_Type
__ZNSt3__112basic_stringIcNS_11char_traitsIcEENS_9allocatorIcEEE9push_backEc
__ZNK3c105Error4whatEv
__ZNKSt3__112basic_stringIcNS_11char_traitsIcEENS_9allocatorIcEEE4findEcm
_PyCapsule_GetContext
__ZNSt3__14stoiERKNS_12basic_stringIcNS_11char_traitsIcEENS_9allocatorIcEEEEPmi
__ZN6google8protobuf5Arena18CreateMaybeMessageIN10onnx_torch14ValueInfoProtoEJEEEPT_PS1_DpOT0_
_stat
__ZNSt3__112basic_stringIcNS_11char_traitsIcEENS_9allocatorIcEEE6insertEmPKc
__ZN3c1017get_default_dtypeEv
__ZN6google8protobuf5Arena18CreateMaybeMessageIN10onnx_torch9TypeProtoEJEEEPT_PS1_DpOT0_
__ZN3c104impl24DeviceGuardImplRegistrarC1ENS_10DeviceTypeEPKNS0_24DeviceGuardImplInterfaceE
__ZN3c10lsERNSt3__113basic_ostreamIcNS0_11char_traitsIcEEEERKNS_6StreamE
__ZN3c10eqERKNS_6SymIntEx
_pthreadpool_get_threads_count
_atanf
_PyCFunction_Type
_PyObject_GC_UnTrack
__ZNK3c106SymInt6sym_neERKS0_
__ZN3c104impl12PyObjectSlotC1Ev
__ZN3c10lsERNSt3__113basic_ostreamIcNS0_11char_traitsIcEEEERKNS_7SymBoolE
_PyExc_IndexError
_PyErr_NormalizeException
__ZNSt3__16localeC1Ev
_PyException_SetTraceback
_time
_PyDict_DelItemString
__Unwind_Resume
__ZNSt3__16localeC1EPKc
__ZNKSt3__16locale4nameEv
__ZTISt11range_error
___assert_rtn
__ZNSt12length_errorD1Ev
dyld_stub_binder
__ZN6google8protobuf2io16CodedInputStream7RefreshEv
__ZN6google8protobuf5Arena18CreateMaybeMessageIN10onnx_torch22StringStringEntryProtoEJEEEPT_PS1_DpOT0_
_PyExc_ImportError
__ZN3c1019UndefinedTensorImpl10_singletonE
_PyObject_SetItem
__ZNSt3__15mutex6unlockEv
_log1pf
__ZNKSt3__123__match_any_but_newlineIcE6__execERNS_7__stateIcEE
__ZNSt9exceptionD2Ev
__ZTIN3c1013GeneratorImplE
__ZN3c1010TensorImplC1EONS_7StorageENS_14DispatchKeySetEN6caffe28TypeMetaE
__ZNSt3__113basic_ostreamIcNS_11char_traitsIcEEElsEy
_atan
__ZNSt3__113basic_ostreamIcNS_11char_traitsIcEEED2Ev
__ZN3c107WarningC1ENSt3__17variantIJNS0_11UserWarningENS0_18DeprecationWarningEEEENS_14SourceLocationEPKcb
__ZNK3c106SymInt9toSymNodeEv
__ZTIN3c1014WarningHandlerE
_log10
__ZN6google8protobuf5Arena18CreateMaybeMessageIN10onnx_torch10GraphProtoEJEEEPT_PS1_DpOT0_
_OBJC_CLASS_$_MPSGraph
_memmove
_strtod_l
__ZNSt3__16threadD1Ev
__ZNSt3__19to_stringEx
__ZN3c1016C10FlagsRegistryEv
__ZN3c1010ThreadPool3runENSt3__18functionIFvvEEE
__ZN3c107WarningC1ENSt3__17variantIJNS0_11UserWarningENS0_18DeprecationWarningEEEERKNS_14SourceLocationENS1_12basic_stringIcNS1_11char_traitsIcEENS1_9allocatorIcEEEEb
__ZTv0_n24_NSt3__114basic_iostreamIcNS_11char_traitsIcEEED1Ev
__ZNSt13runtime_errorC1ERKNSt3__112basic_stringIcNS0_11char_traitsIcEENS0_9allocatorIcEEEE
__ZNK3c1013GeneratorImpl6deviceEv
_PyErr_Restore
__ZNK3c1010TensorImpl23shallow_copy_and_detachEONS_15VariableVersionEb
_cblas_zdotc_sub
__ZNSt13runtime_errorC1EPKc
__ZN3c10lsERNSt3__113basic_ostreamIcNS0_11char_traitsIcEEEENS_11DispatchKeyE
__ZNK3c107SymBool10guard_boolEPKcx
_objc_msgSend$currentAllocatedSize
_lgamma
__ZNK3c108SymFloat11guard_floatEPKcx
__ZSt13get_terminatev
_PyBytes_Size
__ZN3c1012promoteTypesENS_10ScalarTypeES0_
__ZNK3c1010TensorImpl33compute_non_overlapping_and_denseENS0_8identityIbEE
__ZNSt3__16__sortIRNS_6__lessIxxEEPxEEvT0_S5_T_
__ZN3c1015SmallVectorBaseIjE13mallocForGrowEmmRm
_cblas_cdotu_sub
__ZN3c1010TensorImpl28copy_generic_tensor_metadataEPKS0_PS0_
_PyDict_GetItemWithError
__ZNK3c1010TensorImpl35is_non_overlapping_and_dense_customEv
_cblas_cdotc_sub
__ZN3c10lsERNSt3__113basic_ostreamIcNS0_11char_traitsIcEEEERKNS_6SymIntE
__ZNSt3__120__get_collation_nameEPKc
_PyByteArray_AsString
__ZTINSt3__114basic_iostreamIcNS_11char_traitsIcEEEE
__ZTIN3c105ErrorE
_getsectiondata
__ZN3c106detail13deleteNothingEPv
_logf
__ZNK3c106SymInt9guard_intEPKcx
_erff
_atan2
__ZNK3c1010TensorImpl13requires_gradEv
__ZTISt20bad_array_new_length
__ZNKSt3__112basic_stringIcNS_11char_traitsIcEENS_9allocatorIcEEE5rfindEcm
_asinf
_PyObject_CallObject
__ZN3c1013ParallelGuardD1Ev
__ZN3c1022GetEventSampledHandlerENSt3__117basic_string_viewIcNS0_11char_traitsIcEEEE
__ZNSt9bad_allocD1Ev
__ZNK3c1012SafePyObject3ptrEPKNS_4impl13PyInterpreterE
__ZTISt12length_error
__ZTVSt12length_error
__ZN3c1021throwNullDataPtrErrorEv
__ZN10onnx_torch28_TypeProto_default_instance_E
__ZNSt13exception_ptrD1Ev
_pytorch_qnnp_initialize
_strchr
__ZN3c1010TensorImpl20copy_tensor_metadataEPKS0_PS0_ONS_15VariableVersionEb
__ZNK3c106SymInt6sym_geERKS0_
__ZN3c1013ParallelGuardC1Eb
__ZN3c1013AutogradState13set_tls_stateES0_
__ZN7qnnpack13qnnpackLinearEmmmhPKhPKfhhhS1_mPvPhmP11pthreadpool
_PyThreadState_Clear
__ZN3c10eqERKNS_6SymIntEi
_OBJC_CLASS_$_NSMutableArray
__ZN7qnnpack11PackBMatrixC1EmmPKhPKfS2_PKi
__ZNK3c107SymBool13toSymNodeImplEv
___udivti3
__ZNSt20bad_array_new_lengthD1Ev
__ZNSt3__113basic_istreamIcNS_11char_traitsIcEEE5seekgExNS_8ios_base7seekdirE
__ZNK3c1017SymbolicShapeMeta18init_is_contiguousEv
__ZNK3c1017SymbolicShapeMeta24init_is_channels_last_3dEv
_malloc
__ZTVNSt3__119basic_ostringstreamIcNS_11char_traitsIcEENS_9allocatorIcEEEE
__ZNK3c1010TensorImpl12numel_customEv
__ZTVNSt3__114basic_ofstreamIcNS_11char_traitsIcEEEE
__ZNSt3__111regex_errorD1Ev
_open
__ZN6caffe28TypeMeta13typeMetaDatasEv
__ZN3c106detail20ExcludeFileExtensionERKNSt3__112basic_stringIcNS1_11char_traitsIcEENS1_9allocatorIcEEEE
__ZNSt3__119__shared_weak_count14__release_weakEv
__ZNSt3__16localeD1Ev
__ZN3c106SymIntmLERKS0_
___maskrune
_remainder
_xnn_setup_deconvolution2d_nhwc_qs8
__ZN3c1013GeneratorImpl19graphsafe_set_stateERKNS_13intrusive_ptrIS0_NS_6detail34intrusive_target_default_null_typeIS0_EEEE
_PyExc_OverflowError
_dscal_
__ZNSt9bad_allocC1Ev
__ZNSt3__19basic_iosIcNS_11char_traitsIcEEE7copyfmtERKS3_
__ZNKSt3__112basic_stringIcNS_11char_traitsIcEENS_9allocatorIcEEE7compareEmmPKc
__dyld_get_image_name
___memcpy_chk
__ZNKSt3__115basic_stringbufIcNS_11char_traitsIcEENS_9allocatorIcEEE3strEv
__ZNSt3__16chrono12system_clock3nowEv
__ZNSt3__113basic_filebufIcNS_11char_traitsIcEEED1Ev
__ZN3c106detail19maybe_wrap_dim_slowIxEET_S2_S2_b
__ZN3c104impl19PythonDispatcherTLS9set_stateEPNS0_13PyInterpreterE
__ZNK3c1017SymbolicShapeMeta21init_is_channels_lastEv
__ZN3c1019getStringToDtypeMapEv
___cxa_throw
__ZN3c1010TensorImpl17release_resourcesEv
_PyGILState_Release
_xnn_setup_fully_connected_nc_qs8
__ZN7qnnpack11qnnpackConvEP21pytorch_qnnp_operatorPvmmmmhPKhS4_PKfhhhPhP11pthreadpool
__ZN3c10neERKNS_6SymIntEi
__ZSt17current_exceptionv
_pthreadpool_parallelize_1d
__ZNSt3__16chrono12steady_clock3nowEv
_memchr
_getenv
__ZNK3c1010TensorImpl16sym_sizes_customEv
_xnn_reshape_deconvolution2d_nhwc_qs8
__ZN3c104impl28tls_is_dispatch_key_excludedENS_11DispatchKeyE
__ZNSt3__115recursive_mutexD1Ev
__ZN3c1013C10FlagParser5ParseIxEEbRKNSt3__112basic_stringIcNS2_11char_traitsIcEENS2_9allocatorIcEEEEPT_
_fmod
__ZN6google8protobuf5Arena18CreateMaybeMessageIN10onnx_torch16TypeProto_TensorEJEEEPT_PS1_DpOT0_
_Sleef_fmaxf4
__ZTISt14overflow_error
_dispatch_queue_create
_PyGILState_Ensure
__ZNSt13runtime_errorD2Ev
_dispatch_data_create
__ZNK3c1010TensorImpl8_fw_gradEyRKN2at10TensorBaseE
__ZN6google8protobuf8internal9ArenaImpl28AllocateAlignedAndAddCleanupEmPFvPvE
__ZNSt3__19to_stringEy
__ZN3c104impl15SizesAndStrides14resizeSlowPathEmm
__ZNSt3__115system_categoryEv
_fwrite
_PyFrame_GetCode
_coshf
__Py_NotImplementedStruct
__ZN3c104impl3cow15is_cow_data_ptrERKNS_7DataPtrE
__ZN3c1018TaskThreadPoolBase17defaultNumThreadsEv
_tanf
__ZNSt3__118condition_variable4waitERNS_11unique_lockINS_5mutexEEE
__ZTVN10__cxxabiv120__si_class_type_infoE
_PyInstanceMethod_New
__ZNSt3__113basic_ostreamIcNS_11char_traitsIcEEE6sentryD1Ev
__ZNSt3__112basic_stringIcNS_11char_traitsIcEENS_9allocatorIcEEE6assignEPKcm
___cxa_pure_virtual
__ZN3c104warnERKNS_7WarningE
__ZNSt3__112basic_stringIcNS_11char_traitsIcEENS_9allocatorIcEEE6appendERKS5_mm
_atof
___exp10
_PyExc_FutureWarning
__ZN3c1010TensorImpl42err_msg_tensor_metadata_change_not_allowedE
_PyUnicode_AsEncodedString
__ZTISt16nested_exception
_PyEval_GetBuiltins
__ZNSt3__112__next_primeEm
__tlv_bootstrap
__ZNSt3__113basic_ostreamIcNS_11char_traitsIcEEElsEx
_OBJC_CLASS_$_MPSNDArrayIdentity
_remainderf
__ZNK3c106SymInt3minERKS0_
_pow
__ZN3c1010TensorImplC2ENS0_8ImplTypeEONS_7StorageENS_14DispatchKeySetEN6caffe28TypeMetaE
__ZNSt3__115basic_stringbufIcNS_11char_traitsIcEENS_9allocatorIcEEE3strERKNS_12basic_stringIcS2_S4_EE
_mach_error_string
__ZNSt3__113basic_ostreamIcNS_11char_traitsIcEEElsEPKv
_remove
_PyObject_GetAttrString
__ZNSt3__112basic_stringIcNS_11char_traitsIcEENS_9allocatorIcEEEC1ERKS5_mmRKS4_
_OBJC_CLASS_$_MTLCaptureManager
__ZNSt3__14coutE
__ZN10onnx_torch30_TensorProto_default_instance_E
_PyGILState_Check
__ZNK3c108SymFloat13toSymNodeImplEv
__ZN3c1013C10FlagParser5ParseIbEEbRKNSt3__112basic_stringIcNS2_11char_traitsIcEENS2_9allocatorIcEEEEPT_
_PyDict_New
_xnn_setup_convolution2d_nhwc_qs8
__ZNK10onnx_torch11TensorProto12ByteSizeLongEv
__ZN3c10ngERKNS_6SymIntE
_powf
__ZNSt3__113basic_istreamIcNS_11char_traitsIcEEE5seekgENS_4fposI11__mbstate_tEE
__ZNKSt3__18ios_base6getlocEv
__ZTVNSt3__115basic_stringbufIcNS_11char_traitsIcEENS_9allocatorIcEEEE
__ZTVNSt3__118basic_stringstreamIcNS_11char_traitsIcEENS_9allocatorIcEEEE
_PyNumber_Long
__ZNSt3__119__shared_weak_countD2Ev
_xnn_delete_operator
_xnn_create_deconvolution2d_nhwc_qs8
_objc_alloc
_pthreadpool_create
__ZN3c106detail14torchCheckFailEPKcS2_jS2_
_OBJC_CLASS_$_NSArray
__ZN3c1015GetCPUAllocatorEv
__ZNK3c106SymInt6sym_ltERKS0_
_PyNumber_Check
__ZTv0_n24_NSt3__113basic_ostreamIcNS_11char_traitsIcEEED1Ev
__ZTv0_n24_NSt3__113basic_ostreamIcNS_11char_traitsIcEEED0Ev
___cxa_bad_typeid
__ZN6google8protobuf2io16ArrayInputStreamC1EPKvii
__Py_NoneStruct
__ZN10onnx_torch16OpSchemaRegistry8InstanceEv
_sched_yield
__ZTINSt3__113basic_istreamIcNS_11char_traitsIcEEEE
__ZnwmSt11align_val_t
__ZNSt11logic_errorC1EPKc
__ZN3c1018ThrowEnforceNotMetEPKciS1_RKNSt3__112basic_stringIcNS2_11char_traitsIcEENS2_9allocatorIcEEEEPKv
_exit
__ZN3c104impl20TorchDispatchModeTLS9stack_lenEv
_pthread_create
__ZN3c104impl23ExcludeDispatchKeyGuardC1ENS_14DispatchKeySetE
__ZNSt3__114basic_ofstreamIcNS_11char_traitsIcEEE4openERKNS_12basic_stringIcS2_NS_9allocatorIcEEEEj
_PyException_SetCause
__ZN3c1012WarningUtils14get_warnAlwaysEv
__ZNSt3__19basic_iosIcNS_11char_traitsIcEEED1Ev
__ZN3c1010TensorImplD2Ev
_objc_autorelease
__ZNSt3__113basic_ostreamIcNS_11char_traitsIcEEElsEf
_sinhf
__ZNSt19bad_optional_accessD1Ev
__ZN3c10leERKNS_6SymIntEi
_PyThread_tss_create
___error
_PyErr_Clear
__ZNSt3__1plIcNS_11char_traitsIcEENS_9allocatorIcEEEENS_12basic_stringIT_T0_T1_EEPKS6_RKS9_
__ZTIN3c109AllocatorE
__ZNSt3__115__thread_structC1Ev
__ZNK3c1010TensorImpl18compute_contiguousENS0_8identityIbEE
_Sleef_tanhf4_u10
_fopen
__ZTVN10__cxxabiv119__pointer_type_infoE
_cosf
__ZN3c10miERKNS_6SymIntEi
_sysctlbyname
__PyObject_GetDictPtr
__ZNK3c106SymIntmiERKS0_
_cosh
__ZNK3c107SymBool11expect_trueEPKcx
_srand
__ZNK3c108SymFloat6sym_eqERKS0_
__ZN3c104impl29tls_set_dispatch_key_excludedENS_11DispatchKeyEb
__ZNK3c1010TensorImpl26throw_storage_access_errorEv
__ZNK3c1010TensorImpl10dim_customEv
__ZNSt3__15ctypeIcE2idE
___cxa_rethrow
_PyErr_Fetch
_sin
__ZNSt3__113basic_istreamIcNS_11char_traitsIcEEED1Ev
__ZN3c1012WarningUtils19get_warning_handlerEv
_sgemv_
__ZThn16_NSt3__114basic_iostreamIcNS_11char_traitsIcEEED0Ev
__ZNSt3__113basic_ostreamIcNS_11char_traitsIcEEE5flushEv
_PyExc_ValueError
_fstat
__ZNK3c105Error9backtraceEv
_PyTuple_SetItem
__ZTVSt18bad_variant_access
__NSConcreteStackBlock
_PyObject_SetAttrString
_rand
_caxpy_
_PyCapsule_GetName
__ZNKSt3__119__shared_weak_count13__get_deleterERKSt9type_info
__ZN6google8protobuf5Arena18CreateMaybeMessageIN10onnx_torch16TensorShapeProtoEJEEEPT_PS1_DpOT0_
__ZNK3c1010ThreadPool12numAvailableEv
__ZNSt3__112basic_stringIcNS_11char_traitsIcEENS_9allocatorIcEEEaSEc
__ZNSt3__15mutex4lockEv
__ZNSt3__112basic_stringIcNS_11char_traitsIcEENS_9allocatorIcEEE6insertEmPKcm
_PyCapsule_SetContext
__ZNSt3__19to_stringEi
_objc_msgSend$hasUnifiedMemory
_exp
__ZTISt13runtime_error
__ZTVSt19bad_optional_access
__dyld_image_count
_newlocale
_PyCapsule_GetPointer
_strcmp
_PyWeakref_NewRef
_objc_msgSend$GPUEndTime
__ZN6google8protobuf8internal26fixed_address_empty_stringE
__ZNSt13runtime_errorC2ERKNSt3__112basic_stringIcNS0_11char_traitsIcEENS0_9allocatorIcEEEE
__PyThreadState_UncheckedGet
_strncmp
__ZNSt3__113basic_istreamIcNS_11char_traitsIcEEE6sentryC1ERS3_b
_log1p
__ZNSt3__14stodERKNS_12basic_stringIcNS_11char_traitsIcEENS_9allocatorIcEEEEPm
__ZN3c106detail23torchInternalAssertFailEPKcS2_jS2_RKNSt3__112basic_stringIcNS3_11char_traitsIcEENS3_9allocatorIcEEEE
__ZNSt3__111__call_onceERVmPvPFvS2_E
___cxa_guard_abort
__ZNSt20bad_array_new_lengthC1Ev
__ZNK3c1010TensorImpl13layout_customEv
__ZN10onnx_torch10ModelProtoD1Ev
__ZNK3c107SymBool8has_hintEv
__ZNSt3__19to_stringEj
__ZNSt3__112basic_stringIcNS_11char_traitsIcEENS_9allocatorIcEEE7replaceEmmPKcm
